; Function Attrs: null_pointer_is_valid sspstrong uwtable
define ptr @prefs_register_protocol_obsolete(i32 noundef %0) local_unnamed_addr #1 {
  %2 = load ptr, ptr @protocols_module, align 8
  %3 = icmp eq ptr %2, null
  br i1 %3, label %4, label %5

4:                                                ; preds = %1
  tail call fastcc void @pre_init_prefs()
  tail call fastcc void @prefs_register_modules()
  br label %5

5:                                                ; preds = %4, %1
  %6 = tail call ptr @find_protocol_by_id(i32 noundef %0)
  %7 = icmp eq ptr %6, null
  br i1 %7, label %8, label %9

8:                                                ; preds = %5
  tail call void (ptr, i32, ptr, i64, ptr, ptr, ...) @ws_log_fatal_full(ptr noundef nonnull @.str, i32 noundef 7, ptr noundef nonnull @.str.1, i64 noundef 754, ptr noundef nonnull @__func__.prefs_register_protocol_obsolete, ptr noundef nonnull @.str.7) #26
  unreachable

9:                                                ; preds = %5
  %10 = load ptr, ptr @protocols_module, align 8
  %11 = tail call ptr @proto_get_protocol_filter_name(i32 noundef %0)
  %12 = tail call ptr @proto_get_protocol_short_name(ptr noundef nonnull %6)
  %13 = tail call ptr @proto_get_protocol_name(i32 noundef %0)
  %14 = tail call fastcc ptr @prefs_register_module_or_subtree(ptr noundef %10, ptr noundef %11, ptr noundef %12, ptr noundef %13, ptr noundef null, i1 noundef zeroext false, ptr noundef null, i1 noundef zeroext true)
  %15 = getelementptr inbounds nuw i8, ptr %14, i64 72
  store i8 1, ptr %15, align 8
  ret ptr %14
}